	.file	"descriptors.c"
	.text
.Ltext0:
	.cfi_sections	.debug_frame
	.comm	gdt_entries,45,4
	.comm	gdt_ptr,6,4
	.comm	idt_entries,2048,4
	.comm	idt_ptr,6,4
	.section	.rodata.str1.1,"aMS",@progbits,1
.LC0:
	.string	"Unhandled exception triggered"
	.text
	.type	idt_general_func, @function
idt_general_func:
.LFB3:
	.file 1 "descriptors.c"
	.loc 1 56 0
	.cfi_startproc
	pushl	%ebp
.LCFI0:
	.cfi_def_cfa_offset 8
	movl	%esp, %ebp
	.cfi_offset 5, -8
.LCFI1:
	.cfi_def_cfa_register 5
	subl	$20, %esp
	.loc 1 57 0
	pushl	$.LC0
	.cfi_escape 0x2e,0x10
	call	monitor_write
	addl	$16, %esp
.L2:
	jmp	.L2
	.cfi_endproc
.LFE3:
	.size	idt_general_func, .-idt_general_func
.globl init_descriptor_tables
	.type	init_descriptor_tables, @function
init_descriptor_tables:
.LFB5:
	.loc 1 76 0
	.cfi_startproc
	pushl	%ebp
.LCFI2:
	.cfi_def_cfa_offset 8
	movl	%esp, %ebp
	.cfi_offset 5, -8
.LCFI3:
	.cfi_def_cfa_register 5
	subl	$20, %esp
.LBB30:
.LBB31:
	.loc 1 27 0
	movl	$gdt_entries, gdt_ptr+2
	.loc 1 28 0
	movw	$44, gdt_ptr
.LBB32:
.LBB33:
	.loc 1 42 0
	movw	$0, gdt_entries+2
	.loc 1 43 0
	movb	$0, gdt_entries+4
	.loc 1 44 0
	movw	$0, gdt_entries+7
	.loc 1 46 0
	movw	$0, gdt_entries
	.loc 1 49 0
	movb	$0, gdt_entries+6
	.loc 1 50 0
	movb	$0, gdt_entries+5
.LBE33:
.LBE32:
.LBB34:
.LBB35:
	.loc 1 42 0
	movw	$0, gdt_entries+11
	.loc 1 43 0
	movb	$0, gdt_entries+13
	.loc 1 44 0
	movw	$0, gdt_entries+16
	.loc 1 46 0
	movw	$-1, gdt_entries+9
	.loc 1 49 0
	movb	$-49, gdt_entries+15
	.loc 1 50 0
	movb	$-102, gdt_entries+14
.LBE35:
.LBE34:
.LBB36:
.LBB37:
	.loc 1 42 0
	movw	$0, gdt_entries+20
	.loc 1 43 0
	movb	$0, gdt_entries+22
	.loc 1 44 0
	movw	$0, gdt_entries+25
	.loc 1 46 0
	movw	$-1, gdt_entries+18
	.loc 1 49 0
	movb	$-49, gdt_entries+24
	.loc 1 50 0
	movb	$-110, gdt_entries+23
.LBE37:
.LBE36:
.LBB38:
.LBB39:
	.loc 1 42 0
	movw	$0, gdt_entries+29
	.loc 1 43 0
	movb	$0, gdt_entries+31
	.loc 1 44 0
	movw	$0, gdt_entries+34
	.loc 1 46 0
	movw	$-1, gdt_entries+27
	.loc 1 49 0
	movb	$-49, gdt_entries+33
	.loc 1 50 0
	movb	$-6, gdt_entries+32
.LBE39:
.LBE38:
.LBB40:
.LBB41:
	.loc 1 42 0
	movw	$0, gdt_entries+38
	.loc 1 43 0
	movb	$0, gdt_entries+40
	.loc 1 44 0
	movw	$0, gdt_entries+43
	.loc 1 46 0
	movw	$-1, gdt_entries+36
	.loc 1 49 0
	movb	$-49, gdt_entries+42
	.loc 1 50 0
	movb	$-14, gdt_entries+41
.LBE41:
.LBE40:
	.loc 1 36 0
	pushl	$gdt_ptr
	.cfi_escape 0x2e,0x10
	call	gdt_flush
.LBE31:
.LBE30:
.LBB42:
.LBB43:
	.loc 1 67 0
	movl	$idt_general_func, %ecx
	xorl	%eax, %eax
.LVL0:
	shrl	$16, %ecx
	addl	$16, %esp
.LBB44:
.LBB45:
	.loc 1 17 0
	movl	$idt_general_func, %edx
.L6:
	movw	%dx, idt_entries(,%eax,8)
	.loc 1 18 0
	movw	%cx, idt_entries+6(,%eax,8)
	.loc 1 19 0
	movb	$0, idt_entries+4(,%eax,8)
	.loc 1 21 0
	movb	$-114, idt_entries+5(,%eax,8)
	.loc 1 22 0
	movw	$8, idt_entries+2(,%eax,8)
.LBE45:
.LBE44:
	.loc 1 65 0
	incl	%eax
	cmpl	$256, %eax
	jne	.L6
	.loc 1 72 0
	subl	$12, %esp
	pushl	$idt_ptr
	.loc 1 70 0
	movl	$idt_entries, idt_ptr+2
	.loc 1 71 0
	movw	$2047, idt_ptr
	.loc 1 72 0
	call	idt_flush
.LVL1:
	addl	$16, %esp
.LBE43:
.LBE42:
	.loc 1 80 0
	leave
	ret
	.cfi_endproc
.LFE5:
	.size	init_descriptor_tables, .-init_descriptor_tables
.Letext0:
	.section	.note.GNU-stack,"",@progbits
