	.file	"kernel_main.c"
	.text
.Ltext0:
	.cfi_sections	.debug_frame
#APP
	push %ebx
	push %eax
	call main
	.section	.rodata.str1.1,"aMS",@progbits,1
.LC0:
	.string	"Printing system memory map\n"
.LC1:
	.string	"-----------------------------------\n"
.LC2:
	.string	"type: available "
.LC3:
	.string	"type: reserved "
.LC4:
	.string	"type: acpi reclaim"
.LC5:
	.string	"type: acpi nvs store"
.LC6:
	.string	"Error reading memory map.Memory type undefined \n"
.LC7:
	.string	"base "
.LC8:
	.string	"     length:"
.LC9:
	.string	"\n"
.LC10:
	.string	"---------------------------------\n"
#NO_APP
	.text
.globl load_system_memory_map
	.type	load_system_memory_map, @function
load_system_memory_map:
.LFB0:
	.file 1 "kernel_main.c"
	.loc 1 55 0
	.cfi_startproc
.LVL0:
	pushl	%ebp
.LCFI0:
	.cfi_def_cfa_offset 8
	movl	%esp, %ebp
	.cfi_offset 5, -8
.LCFI1:
	.cfi_def_cfa_register 5
	pushl	%edi
	pushl	%esi
	.loc 1 60 0
	xorl	%esi, %esi
	.cfi_offset 6, -16
	.cfi_offset 7, -12
.LVL1:
	.loc 1 55 0
	pushl	%ebx
	subl	$24, %esp
	.loc 1 55 0
	movl	8(%ebp), %edi
	movl	12(%ebp), %ebx
	.cfi_offset 3, -20
	.loc 1 56 0
	movl	$0, largest_contigous_base
	.loc 1 57 0
	movl	$0, largest_contigous_length
	.loc 1 58 0
	pushl	$.LC0
	.cfi_escape 0x2e,0x10
	call	monitor_write
	.loc 1 60 0
	movl	$.LC1, (%esp)
	call	monitor_write
	.loc 1 61 0
	addl	$16, %esp
	jmp	.L2
.LVL2:
.L10:
.LBB8:
	.loc 1 64 0
	movl	16(%ebx), %eax
	cmpl	$1, %eax
	jne	.L3
	.loc 1 66 0
	subl	$12, %esp
	pushl	$.LC2
	jmp	.L13
.L3:
	.loc 1 68 0
	cmpl	$2, %eax
	jne	.L5
	.loc 1 70 0
	subl	$12, %esp
	pushl	$.LC3
	jmp	.L13
.L5:
	.loc 1 72 0
	cmpl	$3, %eax
	jne	.L6
	.loc 1 74 0
	subl	$12, %esp
	pushl	$.LC4
	jmp	.L13
.L6:
	.loc 1 76 0
	cmpl	$4, %eax
	jne	.L7
	.loc 1 78 0
	subl	$12, %esp
	pushl	$.LC5
.L13:
	call	monitor_write
	addl	$16, %esp
	.loc 1 87 0
	subl	$12, %esp
	pushl	$.LC7
	call	monitor_write
	.loc 1 88 0
	popl	%ecx
	popl	%eax
	pushl	$0
	pushl	(%ebx)
	call	monitor_dec
	.loc 1 89 0
	movl	$.LC8, (%esp)
	call	monitor_write
	.loc 1 90 0
	popl	%eax
	popl	%edx
	pushl	$0
	pushl	8(%ebx)
	call	monitor_dec
	.loc 1 91 0
	movl	$.LC9, (%esp)
	call	monitor_write
	.loc 1 92 0
	addl	$16, %esp
	cmpl	$1, 16(%ebx)
	jne	.L8
	jmp	.L16
.L7:
	.loc 1 82 0
	subl	$12, %esp
	pushl	$.LC6
	call	monitor_write
	.loc 1 83 0
	popl	%edx
	popl	%ecx
	pushl	$0
	pushl	16(%ebx)
	call	monitor_dec
	.loc 1 84 0
	addl	$16, %esp
	jmp	.L8
.L16:
	.loc 1 92 0
	cmpl	$0, 12(%ebx)
	movl	8(%ebx), %eax
	movl	largest_contigous_length, %edx
	jne	.L12
	cmpl	%edx, %eax
	jbe	.L8
.L12:
	.loc 1 94 0
	movl	(%ebx), %edx
	.loc 1 95 0
	movl	%eax, largest_contigous_length
	.loc 1 94 0
	movl	%edx, largest_contigous_base
.L8:
.LBE8:
	.loc 1 61 0
	incl	%esi
	addl	$20, %ebx
.LVL3:
.L2:
	cmpl	%edi, %esi
	jb	.L10
	.loc 1 98 0
	movl	$.LC10, 8(%ebp)
	.loc 1 100 0
	leal	-12(%ebp), %esp
	popl	%ebx
.LVL4:
	popl	%esi
.LVL5:
	popl	%edi
.LVL6:
	popl	%ebp
	.loc 1 98 0
	.cfi_escape 0x2e,0x4
	jmp	monitor_write
	.cfi_endproc
.LFE0:
	.size	load_system_memory_map, .-load_system_memory_map
	.section	.rodata.str1.1
.LC11:
	.string	"Welcome to the Pink floyd OS\n"
.LC12:
	.string	"Kernel modules loaded"
.LC13:
	.string	"The multiboot header address is :"
.LC14:
	.string	"Testing multiboot header successful\n"
.LC15:
	.string	"Multiboot header not successful"
.LC16:
	.string	"Total system memory "
.LC17:
	.string	"bytes\n"
.LC18:
	.string	"Initializing descriptor tables...\n"
.LC19:
	.string	"Initializing block allocator\n"
.LC20:
	.string	"Allocating two blocks of memory\n"
.LC21:
	.string	"Allocation failed\n"
.LC22:
	.string	"Block allocated at memory addresses :"
.LC23:
	.string	" "
.LC24:
	.string	"deallocating both the blocks\n"
.LC25:
	.string	"Enabling paging\n"
	.text
.globl main
	.type	main, @function
main:
.LFB3:
	.loc 1 129 0
	.cfi_startproc
.LVL7:
	leal	4(%esp), %ecx
.LCFI2:
	.cfi_def_cfa 1, 0
	andl	$-16, %esp
	pushl	-4(%ecx)
	pushl	%ebp
	movl	%esp, %ebp
	.cfi_escape 0x10,0x5,0x1,0x55
	pushl	%esi
	pushl	%ebx
	pushl	%ecx
.LCFI3:
	.cfi_escape 0xf,0x3,0x75,0x74,0x6
	subl	$12, %esp
	.loc 1 129 0
	movl	(%ecx), %esi
	.cfi_escape 0x10,0x3,0x2,0x75,0x78
	.cfi_escape 0x10,0x6,0x2,0x75,0x7c
	movl	4(%ecx), %ebx
	.loc 1 130 0
	call	monitor_clear
	.loc 1 131 0
	subl	$12, %esp
	pushl	$.LC11
	.cfi_escape 0x2e,0x10
	call	monitor_write
	.loc 1 132 0
	movl	$.LC12, (%esp)
	call	monitor_write
	.loc 1 133 0
	movl	$.LC13, (%esp)
	call	monitor_write
	.loc 1 134 0
	popl	%eax
	popl	%edx
	pushl	$0
	pushl	%ebx
	call	monitor_dec
	.loc 1 135 0
	movl	$.LC9, (%esp)
	call	monitor_write
.LBB9:
.LBB10:
	.loc 1 120 0
	addl	$16, %esp
	cmpl	$732803074, %esi
	jne	.L18
.LVL8:
	.loc 1 121 0
	subl	$12, %esp
	pushl	$.LC14
	jmp	.L26
.L18:
	.loc 1 123 0
	subl	$12, %esp
	pushl	$.LC15
.L26:
	call	monitor_write
.LBB11:
.LBB12:
	.loc 1 107 0
	movl	8(%ebx), %eax
	movl	4(%ebx), %edx
	.loc 1 108 0
	movl	$.LC16, (%esp)
	.loc 1 107 0
	sall	$6, %eax
	leal	1024(%edx,%eax), %esi
.LVL9:
	.loc 1 108 0
	call	monitor_write
	.loc 1 109 0
	popl	%edx
	popl	%ecx
	pushl	$0
	pushl	%esi
	call	monitor_dec
	.loc 1 110 0
	movl	$.LC17, (%esp)
	call	monitor_write
	.loc 1 111 0
	popl	%esi
.LVL10:
	popl	%eax
	pushl	44(%ebx)
	pushl	40(%ebx)
	call	load_system_memory_map
.LBE12:
.LBE11:
.LBE10:
.LBE9:
	.loc 1 140 0
	.cfi_escape 0x2e,0x0
	call	init_descriptor_tables
	.loc 1 141 0
	movl	$.LC18, (%esp)
	.cfi_escape 0x2e,0x10
	call	monitor_write
	.loc 1 142 0
	movl	$.LC19, (%esp)
	call	monitor_write
	.loc 1 143 0
	.cfi_escape 0x2e,0x0
	call	init_allocation_bitmap
	.loc 1 144 0
	movl	$.LC20, (%esp)
	.cfi_escape 0x2e,0x10
	call	monitor_write
	.loc 1 145 0
	.cfi_escape 0x2e,0x0
	call	alloc_block
	movl	%eax, %ebx
.LVL11:
	.loc 1 146 0
	call	alloc_block
	.loc 1 147 0
	addl	$16, %esp
	testl	%eax, %eax
.LVL12:
	.loc 1 146 0
	movl	%eax, %esi
.LVL13:
	.loc 1 147 0
	je	.L25
	testl	%ebx, %ebx
	jne	.L20
.L25:
	.loc 1 148 0
	subl	$12, %esp
	pushl	$.LC21
	.cfi_escape 0x2e,0x10
	call	monitor_write
	jmp	.L27
.L20:
	.loc 1 151 0
	subl	$12, %esp
	pushl	$.LC22
	call	monitor_write
	.loc 1 152 0
	popl	%edx
	popl	%ecx
	pushl	$0
	pushl	%ebx
	call	monitor_dec
	.loc 1 153 0
	movl	$.LC23, (%esp)
	call	monitor_write
	.loc 1 154 0
	popl	%ebx
.LVL14:
	popl	%eax
	pushl	$0
	pushl	%esi
	call	monitor_dec
.LVL15:
.L27:
	.loc 1 156 0
	movl	$.LC24, (%esp)
	call	monitor_write
	.loc 1 157 0
	movl	$.LC25, (%esp)
	call	monitor_write
	.loc 1 158 0
	.cfi_escape 0x2e,0x0
	call	init_paging
	addl	$16, %esp
.L23:
	jmp	.L23
	.cfi_endproc
.LFE3:
	.size	main, .-main
.globl outb
	.type	outb, @function
outb:
.LFB4:
	.loc 1 164 0
	.cfi_startproc
.LVL16:
	pushl	%ebp
.LCFI4:
	.cfi_def_cfa_offset 8
	movl	%esp, %ebp
	.cfi_offset 5, -8
.LCFI5:
	.cfi_def_cfa_register 5
	.loc 1 165 0
	movb	12(%ebp), %al
	movl	8(%ebp), %edx
#APP
# 165 "kernel_main.c" 1
	outb %al, %dx
# 0 "" 2
	.loc 1 166 0
#NO_APP
	popl	%ebp
	ret
	.cfi_endproc
.LFE4:
	.size	outb, .-outb
.globl inb
	.type	inb, @function
inb:
.LFB5:
	.loc 1 169 0
	.cfi_startproc
.LVL17:
	pushl	%ebp
.LCFI6:
	.cfi_def_cfa_offset 8
	movl	%esp, %ebp
	.cfi_offset 5, -8
.LCFI7:
	.cfi_def_cfa_register 5
	.loc 1 171 0
	movl	8(%ebp), %edx
#APP
# 171 "kernel_main.c" 1
	inb %dx, %al
# 0 "" 2
.LVL18:
.LVL19:
	.loc 1 173 0
#NO_APP
	popl	%ebp
	ret
	.cfi_endproc
.LFE5:
	.size	inb, .-inb
.globl inw
	.type	inw, @function
inw:
.LFB6:
	.loc 1 176 0
	.cfi_startproc
.LVL20:
	pushl	%ebp
.LCFI8:
	.cfi_def_cfa_offset 8
	movl	%esp, %ebp
	.cfi_offset 5, -8
.LCFI9:
	.cfi_def_cfa_register 5
	.loc 1 178 0
	movl	8(%ebp), %edx
#APP
# 178 "kernel_main.c" 1
	inw %dx, %ax
# 0 "" 2
.LVL21:
.LVL22:
	.loc 1 180 0
#NO_APP
	popl	%ebp
	ret
	.cfi_endproc
.LFE6:
	.size	inw, .-inw
.Letext0:
	.section	.note.GNU-stack,"",@progbits
