	.file	"monitor.c"
	.text
.Ltext0:
	.cfi_sections	.debug_frame
.globl vidmem
	.data
	.align 4
	.type	vidmem, @object
	.size	vidmem, 4
vidmem:
	.long	753664
.globl cursor_x
	.bss
	.type	cursor_x, @object
	.size	cursor_x, 1
cursor_x:
	.zero	1
.globl cursor_y
	.type	cursor_y, @object
	.size	cursor_y, 1
cursor_y:
	.zero	1
	.text
	.type	move_cursor, @function
move_cursor:
.LFB0:
	.file 1 "monitor.c"
	.loc 1 11 0
	.cfi_startproc
	pushl	%ebp
.LCFI0:
	.cfi_def_cfa_offset 8
	.loc 1 12 0
	movb	$80, %dl
	.loc 1 11 0
	movl	%esp, %ebp
	.cfi_offset 5, -8
.LCFI1:
	.cfi_def_cfa_register 5
	pushl	%ebx
	subl	$12, %esp
	.loc 1 12 0
	movb	cursor_y, %al
	movzbl	cursor_x, %ecx
	.loc 1 13 0
	pushl	$14
	pushl	$980
	.loc 1 12 0
	mulb	%dl
	movl	%eax, %edx
	leal	(%edx,%ecx), %ebx
	.cfi_offset 3, -12
.LVL0:
	.loc 1 13 0
	.cfi_escape 0x2e,0x10
	call	outb
	.loc 1 14 0
	popl	%edx
	popl	%ecx
	pushl	$0
	pushl	$981
	call	outb
	.loc 1 15 0
	popl	%ecx
	popl	%eax
	pushl	$15
	pushl	$980
	call	outb
	.loc 1 16 0
	popl	%eax
	popl	%edx
	movzbl	%bl, %edx
.LVL1:
	pushl	%edx
	pushl	$981
	call	outb
.LVL2:
	addl	$16, %esp
	.loc 1 18 0
	movl	-4(%ebp), %ebx
	leave
	ret
	.cfi_endproc
.LFE0:
	.size	move_cursor, .-move_cursor
.globl monitor_put
	.type	monitor_put, @function
monitor_put:
.LFB2:
	.loc 1 40 0
	.cfi_startproc
.LVL3:
	pushl	%ebp
.LCFI2:
	.cfi_def_cfa_offset 8
	movl	%esp, %ebp
	.cfi_offset 5, -8
.LCFI3:
	.cfi_def_cfa_register 5
	subl	$8, %esp
	.loc 1 40 0
	movb	8(%ebp), %al
	.loc 1 45 0
	cmpb	$9, %al
	jne	.L4
.LVL4:
	.loc 1 47 0
	movb	cursor_x, %al
.LVL5:
	testb	%al, %al
	je	.L5
	.loc 1 48 0
	decl	%eax
	movb	%al, cursor_x
	jmp	.L5
.LVL6:
.L4:
	.loc 1 54 0
	cmpb	$13, %al
	jne	.L6
	.loc 1 56 0
	movb	$0, cursor_x
	jmp	.L5
.L6:
	.loc 1 58 0
	cmpb	$10, %al
	jne	.L7
	.loc 1 60 0
	movb	$0, cursor_x
	.loc 1 61 0
	incb	cursor_y
	jmp	.L5
.L7:
	.loc 1 63 0
	cmpb	$31, %al
	jle	.L5
	.loc 1 66 0
	movzbl	cursor_y, %ecx
	cbtw
.LVL7:
	movzbl	cursor_x, %edx
	orb	$15, %ah
	imull	$80, %ecx, %ecx
	addl	%edx, %ecx
	movl	vidmem, %edx
	movw	%ax, (%edx,%ecx,2)
	.loc 1 67 0
	incb	cursor_x
.LVL8:
.L5:
	.loc 1 69 0
	cmpb	$79, cursor_x
	jbe	.L8
	.loc 1 72 0
	incb	cursor_y
	.loc 1 71 0
	movb	$0, cursor_x
.L8:
.LBB5:
.LBB6:
	.loc 1 24 0
	cmpb	$24, cursor_y
	jbe	.L9
.LBB7:
	.loc 1 29 0
	movl	vidmem, %eax
	xorl	%edx, %edx
.L10:
	movw	160(%eax,%edx), %cx
	movw	%cx, (%eax,%edx)
	addl	$2, %edx
	.loc 1 27 0
	cmpl	$3840, %edx
	jne	.L10
	.loc 1 39 0
	leal	160(%eax), %edx
.L11:
	.loc 1 33 0
	movw	$3872, 3840(%eax)
	addl	$2, %eax
	.loc 1 31 0
	cmpl	%edx, %eax
	jne	.L11
	.loc 1 35 0
	movb	$25, cursor_y
.LVL9:
.L9:
.LBE7:
.LBE6:
.LBE5:
	.loc 1 76 0
	leave
	.loc 1 75 0
	jmp	move_cursor
	.cfi_endproc
.LFE2:
	.size	monitor_put, .-monitor_put
.globl monitor_clear
	.type	monitor_clear, @function
monitor_clear:
.LFB3:
	.loc 1 79 0
	.cfi_startproc
	pushl	%ebp
.LCFI4:
	.cfi_def_cfa_offset 8
	.loc 1 84 0
	xorl	%eax, %eax
.LVL10:
	.loc 1 79 0
	movl	%esp, %ebp
	.cfi_offset 5, -8
.LCFI5:
	.cfi_def_cfa_register 5
	subl	$8, %esp
	.loc 1 84 0
	movl	vidmem, %edx
.L17:
	movw	$3872, (%edx,%eax,2)
	.loc 1 83 0
	incl	%eax
	cmpl	$2000, %eax
	jne	.L17
	.loc 1 85 0
	movb	$0, cursor_x
	.loc 1 86 0
	movb	$0, cursor_y
	.loc 1 89 0
	leave
	.loc 1 87 0
	jmp	move_cursor
.LVL11:
	.cfi_endproc
.LFE3:
	.size	monitor_clear, .-monitor_clear
.globl monitor_write
	.type	monitor_write, @function
monitor_write:
.LFB4:
	.loc 1 92 0
	.cfi_startproc
.LVL12:
	pushl	%ebp
.LCFI6:
	.cfi_def_cfa_offset 8
	movl	%esp, %ebp
	.cfi_offset 5, -8
.LCFI7:
	.cfi_def_cfa_register 5
	pushl	%ebx
	subl	$4, %esp
	.loc 1 92 0
	movl	8(%ebp), %ebx
	.cfi_offset 3, -12
	.loc 1 94 0
	jmp	.L21
.LVL13:
.L22:
	.loc 1 96 0
	subl	$12, %esp
	movsbl	%al,%eax
	pushl	%eax
	.cfi_escape 0x2e,0x10
	call	monitor_put
	addl	$16, %esp
.L21:
	.loc 1 94 0
	movb	(%ebx), %al
	incl	%ebx
	testb	%al, %al
	jne	.L22
	.loc 1 99 0
	movl	-4(%ebp), %ebx
	leave
	ret
	.cfi_endproc
.LFE4:
	.size	monitor_write, .-monitor_write
.globl monitor_dec
	.type	monitor_dec, @function
monitor_dec:
.LFB5:
	.loc 1 102 0
	.cfi_startproc
.LVL14:
	pushl	%ebp
.LCFI8:
	.cfi_def_cfa_offset 8
	movl	%esp, %ebp
	.cfi_offset 5, -8
.LCFI9:
	.cfi_def_cfa_register 5
	pushl	%ebx
	subl	$4, %esp
	.loc 1 102 0
	movl	8(%ebp), %eax
	.loc 1 103 0
	testl	%eax, %eax
	je	.L26
	.cfi_offset 3, -12
.LVL15:
	.loc 1 105 0
	movl	$10, %ecx
	xorl	%edx, %edx
	divl	%ecx
.LVL16:
	subl	$12, %esp
	movl	%edx, %ebx
	pushl	%eax
	.cfi_escape 0x2e,0x10
	call	monitor_dec
	.loc 1 106 0
	leal	48(%ebx), %eax
	addl	$16, %esp
	movl	%eax, 8(%ebp)
	.loc 1 108 0
	movl	-4(%ebp), %ebx
	leave
	.loc 1 106 0
	.cfi_escape 0x2e,0x4
	jmp	monitor_put
.LVL17:
.L26:
	.loc 1 108 0
	movl	-4(%ebp), %ebx
	leave
	ret
	.cfi_endproc
.LFE5:
	.size	monitor_dec, .-monitor_dec
.Letext0:
	.section	.note.GNU-stack,"",@progbits
