	.file	"pic.c"
	.text
.Ltext0:
	.cfi_sections	.debug_frame
	.type	pic_send_data, @function
pic_send_data:
.LFB1:
	.file 1 "pic.c"
	.loc 1 36 0
	.cfi_startproc
.LVL0:
	pushl	%ebp
.LCFI0:
	.cfi_def_cfa_offset 8
	movl	%esp, %ebp
	.cfi_offset 5, -8
.LCFI1:
	.cfi_def_cfa_register 5
	subl	$8, %esp
	.loc 1 37 0
	decb	%al
.LVL1:
	jne	.L2
	.loc 1 39 0
	pushl	%ecx
	movzbl	%dl, %edx
.LVL2:
	pushl	%ecx
	pushl	%edx
	pushl	$33
	jmp	.L5
.L2:
	.loc 1 43 0
	pushl	%eax
	movzbl	%dl, %edx
.LVL3:
	pushl	%eax
	pushl	%edx
	pushl	$161
.L5:
	.cfi_escape 0x2e,0x10
	call	outb
.LVL4:
	addl	$16, %esp
	.loc 1 46 0
	leave
	ret
	.cfi_endproc
.LFE1:
	.size	pic_send_data, .-pic_send_data
.globl init_pic
	.type	init_pic, @function
init_pic:
.LFB2:
	.loc 1 51 0
	.cfi_startproc
	pushl	%ebp
.LCFI2:
	.cfi_def_cfa_offset 8
	.loc 1 57 0
	movl	$1, %eax
	.loc 1 51 0
	movl	%esp, %ebp
	.cfi_offset 5, -8
.LCFI3:
	.cfi_def_cfa_register 5
	subl	$8, %esp
	.loc 1 57 0
	call	T.3
	.loc 1 58 0
	movl	$2, %eax
	call	T.3
	.loc 1 63 0
	movl	$32, %edx
	movl	$1, %eax
	call	pic_send_data
	.loc 1 66 0
	movl	$40, %edx
	movl	$2, %eax
	call	pic_send_data
	.loc 1 71 0
	movl	$4, %edx
	movl	$1, %eax
	call	pic_send_data
	.loc 1 74 0
	movl	$6, %edx
	movl	$2, %eax
	call	pic_send_data
	.loc 1 79 0
	movl	$1, %edx
	movl	$1, %eax
	call	pic_send_data
	.loc 1 80 0
	movl	$1, %edx
	movl	$2, %eax
	call	pic_send_data
	.loc 1 83 0
	xorl	%edx, %edx
	movl	$1, %eax
	call	pic_send_data
	.loc 1 84 0
	xorl	%edx, %edx
	movl	$2, %eax
	.loc 1 87 0
	leave
	.loc 1 84 0
	jmp	pic_send_data
	.cfi_endproc
.LFE2:
	.size	init_pic, .-init_pic
	.type	T.3, @function
T.3:
.LFB3:
	.loc 1 6 0
	.cfi_startproc
.LVL5:
	pushl	%ebp
.LCFI4:
	.cfi_def_cfa_offset 8
	movl	%esp, %ebp
	.cfi_offset 5, -8
.LCFI5:
	.cfi_def_cfa_register 5
	subl	$16, %esp
	.loc 1 14 0
	pushl	$19
	pushl	$32
	.cfi_escape 0x2e,0x10
	call	outb
.LVL6:
	addl	$16, %esp
	.loc 1 17 0
	leave
	ret
	.cfi_endproc
.LFE3:
	.size	T.3, .-T.3
.Letext0:
	.section	.note.GNU-stack,"",@progbits
