	.file	"vbr.c"
	.text
.Ltext0:
	.cfi_sections	.debug_frame
#APP
	.code16gcc

	.code16gcc
#NO_APP
	.comm	ldtr,6,4
#APP
	jmp main
#NO_APP
.globl in
	.type	in, @function
in:
.LFB1:
	.file 1 "vbr.c"
	.loc 1 44 0
	.cfi_startproc
.LVL0:
	pushl	%ebp
.LCFI0:
	.cfi_def_cfa_offset 8
	.loc 1 46 0
	movl	%eax, %edx
	.loc 1 44 0
	movl	%esp, %ebp
	.cfi_offset 5, -8
.LCFI1:
	.cfi_def_cfa_register 5
	.loc 1 46 0
#APP
# 46 "vbr.c" 1
	inb %dx,%al
# 0 "" 2
.LVL1:
.LVL2:
	.loc 1 48 0
#NO_APP
	popl	%ebp
	ret
	.cfi_endproc
.LFE1:
	.size	in, .-in
.globl out
	.type	out, @function
out:
.LFB2:
	.loc 1 50 0
	.cfi_startproc
.LVL3:
	movl	%eax, %ecx
	movl	%edx, %eax
.LVL4:
	pushl	%ebp
.LCFI2:
	.cfi_def_cfa_offset 8
	.loc 1 51 0
	movl	%ecx, %edx
.LVL5:
	.loc 1 50 0
	movl	%esp, %ebp
	.cfi_offset 5, -8
.LCFI3:
	.cfi_def_cfa_register 5
	.loc 1 51 0
#APP
# 51 "vbr.c" 1
	outb %al,%dx
# 0 "" 2
	.loc 1 52 0
#NO_APP
	popl	%ebp
	ret
	.cfi_endproc
.LFE2:
	.size	out, .-out
.globl wait_keyboard_input
	.type	wait_keyboard_input, @function
wait_keyboard_input:
.LFB3:
	.loc 1 55 0
	.cfi_startproc
	pushl	%ebp
.LCFI4:
	.cfi_def_cfa_offset 8
.LBB10:
	.loc 1 58 0
	movl	$100, %eax
.LBE10:
	.loc 1 55 0
	movl	%esp, %ebp
	.cfi_offset 5, -8
.LCFI5:
	.cfi_def_cfa_register 5
	.loc 1 63 0
	popl	%ebp
.LBB11:
	.loc 1 58 0
	jmp	in
.LBE11:
	.cfi_endproc
.LFE3:
	.size	wait_keyboard_input, .-wait_keyboard_input
.globl wait_keyboard_output
	.type	wait_keyboard_output, @function
wait_keyboard_output:
.LFB4:
	.loc 1 66 0
	.cfi_startproc
	pushl	%ebp
.LCFI6:
	.cfi_def_cfa_offset 8
	movl	%esp, %ebp
	.cfi_offset 5, -8
.LCFI7:
	.cfi_def_cfa_register 5
.L8:
.LBB12:
	.loc 1 69 0
	movl	$100, %eax
	call	in
	.loc 1 70 0
	testb	$1, %al
.LVL6:
	je	.L8
.LBE12:
	.loc 1 74 0
	popl	%ebp
	ret
	.cfi_endproc
.LFE4:
	.size	wait_keyboard_output, .-wait_keyboard_output
	.section	.rodata.str1.1,"aMS",@progbits,1
.LC0:
	.string	"The A20 line is not enabledl"
	.text
.globl enable_A20
	.type	enable_A20, @function
enable_A20:
.LFB5:
	.loc 1 78 0
	.cfi_startproc
	pushl	%ebp
.LCFI8:
	.cfi_def_cfa_offset 8
	movl	%esp, %ebp
	.cfi_offset 5, -8
.LCFI9:
	.cfi_def_cfa_register 5
	pushl	%ebx
	subl	$4, %esp
	.loc 1 83 0
#APP
# 83 "vbr.c" 1
	cli
# 0 "" 2
	.loc 1 85 0
#NO_APP
	movl	$208, %edx
	movl	$100, %eax
	.cfi_offset 3, -12
	call	out
	.loc 1 87 0
	call	wait_keyboard_output
	.loc 1 89 0
	movl	$96, %eax
	call	in
	.loc 1 91 0
	testb	$2, %al
.LVL7:
	.loc 1 89 0
	movb	%al, %bl
.LVL8:
	.loc 1 91 0
	jne	.L13
	.loc 1 92 0
	movl	$.LC0, %eax
	call	print
.L13:
	.loc 1 94 0
	call	wait_keyboard_input
	.loc 1 100 0
	orl	$2, %ebx
.LVL9:
	.loc 1 96 0
	movl	$209, %edx
	movl	$100, %eax
	call	out
	.loc 1 98 0
	call	wait_keyboard_input
	.loc 1 100 0
	movzbl	%bl, %edx
	movl	$96, %eax
	.loc 1 102 0
	popl	%ecx
	popl	%ebx
	popl	%ebp
	.loc 1 100 0
	jmp	out
	.cfi_endproc
.LFE5:
	.size	enable_A20, .-enable_A20
.globl print
	.type	print, @function
print:
.LFB6:
	.loc 1 105 0
	.cfi_startproc
.LVL10:
	pushl	%ebp
.LCFI10:
	.cfi_def_cfa_offset 8
	movl	%eax, %edx
	movl	%esp, %ebp
	.cfi_offset 5, -8
.LCFI11:
	.cfi_def_cfa_register 5
	.loc 1 107 0
	jmp	.L16
.L17:
.LBB13:
	.loc 1 110 0
#APP
# 110 "vbr.c" 1
	mov $0x0E ,  %ah
# 0 "" 2
	.loc 1 111 0
# 111 "vbr.c" 1
	xor %bh ,  %bh
# 0 "" 2
	.loc 1 112 0
# 112 "vbr.c" 1
	mov $0xEF ,  %bl
# 0 "" 2
	.loc 1 113 0
# 113 "vbr.c" 1
	mov %cl , %al ;
# 0 "" 2
.LVL11:
	.loc 1 114 0
# 114 "vbr.c" 1
	or %al , %al
# 0 "" 2
	.loc 1 115 0
# 115 "vbr.c" 1
	int $0x10
# 0 "" 2
.LVL12:
#NO_APP
.L16:
.LBE13:
	.loc 1 107 0
	movb	(%edx), %cl
	incl	%edx
	testb	%cl, %cl
	jne	.L17
	.loc 1 118 0
	popl	%ebp
	ret
	.cfi_endproc
.LFE6:
	.size	print, .-print
	.section	.rodata.str1.1
.LC1:
	.string	"Welcome to the funnyOS !!\r\nKernel modules loaded...\r\n"
.LC2:
	.string	"A 20 mode is enabled \r\n"
.LC3:
	.string	"Entering Protected mode \r\n"
	.text
.globl main
	.type	main, @function
main:
.LFB7:
	.loc 1 121 0
	.cfi_startproc
	pushl	%ebp
.LCFI12:
	.cfi_def_cfa_offset 8
	.loc 1 122 0
	movl	$.LC1, %eax
	.loc 1 121 0
	movl	%esp, %ebp
	.cfi_offset 5, -8
.LCFI13:
	.cfi_def_cfa_register 5
	.loc 1 122 0
	call	print
	.loc 1 153 0
	movl	$.LC2, %eax
	call	print
	.loc 1 154 0
	movl	$.LC3, %eax
	call	print
	.loc 1 155 0
#APP
# 155 "vbr.c" 1
	mov $0x200 , %eax
# 0 "" 2
	.loc 1 156 0
# 156 "vbr.c" 1
	jmp *%eax
# 0 "" 2
#NO_APP
.L20:
	jmp	.L20
	.cfi_endproc
.LFE7:
	.size	main, .-main
.globl print_char
	.type	print_char, @function
print_char:
.LFB8:
	.loc 1 162 0
	.cfi_startproc
.LVL13:
	pushl	%ebp
.LCFI14:
	.cfi_def_cfa_offset 8
	movl	%esp, %ebp
	.cfi_offset 5, -8
.LCFI15:
	.cfi_def_cfa_register 5
	.loc 1 164 0
#APP
# 164 "vbr.c" 1
	mov $0x0E ,  %ah
# 0 "" 2
	.loc 1 165 0
# 165 "vbr.c" 1
	xor %bh ,  %bh
# 0 "" 2
	.loc 1 166 0
# 166 "vbr.c" 1
	mov $0xEF ,  %bl
# 0 "" 2
	.loc 1 167 0
#NO_APP
	movb	8(%ebp), %dl
#APP
# 167 "vbr.c" 1
	mov %dl , %al ;
# 0 "" 2
	.loc 1 168 0
# 168 "vbr.c" 1
	or %al , %al
# 0 "" 2
	.loc 1 169 0
# 169 "vbr.c" 1
	int $0x10
# 0 "" 2
	.loc 1 171 0
#NO_APP
	popl	%ebp
	ret
	.cfi_endproc
.LFE8:
	.size	print_char, .-print_char
.globl print_dec
	.type	print_dec, @function
print_dec:
.LFB9:
	.loc 1 175 0
	.cfi_startproc
.LVL14:
	pushl	%ebp
.LCFI16:
	.cfi_def_cfa_offset 8
	movl	%esp, %ebp
	.cfi_offset 5, -8
.LCFI17:
	.cfi_def_cfa_register 5
	pushl	%ebx
	subl	$4, %esp
	.loc 1 175 0
	movl	8(%ebp), %eax
	movl	12(%ebp), %edx
	.loc 1 176 0
	testl	%eax, %eax
	jne	.L25
	.cfi_offset 3, -12
.LVL15:
	.loc 1 178 0
	testl	%edx, %edx
	jne	.L26
.LBB14:
.LBB15:
	.loc 1 164 0
#APP
# 164 "vbr.c" 1
	mov $0x0E ,  %ah
# 0 "" 2
	.loc 1 165 0
# 165 "vbr.c" 1
	xor %bh ,  %bh
# 0 "" 2
	.loc 1 166 0
# 166 "vbr.c" 1
	mov $0xEF ,  %bl
# 0 "" 2
	.loc 1 167 0
#NO_APP
	movb	$48, %dl
.LVL16:
	jmp	.L29
.LVL17:
.L26:
.LBE15:
.LBE14:
.LBB16:
.LBB17:
	.loc 1 164 0
#APP
# 164 "vbr.c" 1
	mov $0x0E ,  %ah
# 0 "" 2
	.loc 1 165 0
# 165 "vbr.c" 1
	xor %bh ,  %bh
# 0 "" 2
	.loc 1 166 0
# 166 "vbr.c" 1
	mov $0xEF ,  %bl
# 0 "" 2
	.loc 1 167 0
#NO_APP
	xorl	%edx, %edx
.LVL18:
.L29:
#APP
# 167 "vbr.c" 1
	mov %dl , %al ;
# 0 "" 2
.LVL19:
	.loc 1 168 0
# 168 "vbr.c" 1
	or %al , %al
# 0 "" 2
	.loc 1 169 0
# 169 "vbr.c" 1
	int $0x10
# 0 "" 2
#NO_APP
	jmp	.L28
.LVL20:
.L25:
.LBE17:
.LBE16:
	.loc 1 184 0
	pushl	%ebx
	movl	$10, %ecx
	pushl	%ebx
	pushl	%edx
	xorl	%edx, %edx
.LVL21:
	divl	%ecx
.LVL22:
	pushl	%eax
	movl	%edx, %ebx
	.cfi_escape 0x2e,0x10
	call	print_dec
.LBB18:
.LBB19:
	.loc 1 164 0
#APP
# 164 "vbr.c" 1
	mov $0x0E ,  %ah
# 0 "" 2
	.loc 1 165 0
# 165 "vbr.c" 1
	xor %bh ,  %bh
# 0 "" 2
	.loc 1 166 0
# 166 "vbr.c" 1
	mov $0xEF ,  %bl
# 0 "" 2
	.loc 1 167 0
# 167 "vbr.c" 1
	mov %bl , %al ;
# 0 "" 2
	.loc 1 168 0
# 168 "vbr.c" 1
	or %al , %al
# 0 "" 2
	.loc 1 169 0
# 169 "vbr.c" 1
	int $0x10
# 0 "" 2
#NO_APP
	addl	$16, %esp
.L28:
.LBE19:
.LBE18:
	.loc 1 186 0
	movl	-4(%ebp), %ebx
	leave
	ret
	.cfi_endproc
.LFE9:
	.size	print_dec, .-print_dec
.Letext0:
	.section	.note.GNU-stack,"",@progbits
